; Function Attrs: mustprogress uwtable
define void @_ZN30MLRenderingEdgeDecoratorActionC2EP7QObject(ptr noundef nonnull align 8 dereferenceable(16) %0, ptr noundef %1) unnamed_addr #9 align 2 personality ptr @__gxx_personality_v0 {
  %3 = alloca %class.QIcon, align 8
  %4 = alloca %class.QString, align 8
  %5 = alloca %class.QString, align 8
  tail call void @_ZN17MLRenderingActionC2EiP7QObject(ptr noundef nonnull align 8 dereferenceable(16) %0, i32 noundef -1, ptr noundef %1)
  store ptr getelementptr inbounds ({ [19 x ptr] }, ptr @_ZTV30MLRenderingEdgeDecoratorAction, i64 0, i32 0, i64 2), ptr %0, align 8
  %6 = invoke noundef ptr @_ZN7QString16fromAscii_helperEPKci(ptr noundef nonnull @.str.39, i32 noundef 19)
          to label %7 unwind label %21

7:                                                ; preds = %2
  store ptr %6, ptr %4, align 8
  invoke void @_ZN5QIconC1ERK7QString(ptr noundef nonnull align 8 dereferenceable(8) %3, ptr noundef nonnull align 8 dereferenceable(8) %4)
          to label %8 unwind label %23

8:                                                ; preds = %7
  invoke void @_ZN7QAction7setIconERK5QIcon(ptr noundef nonnull align 8 dereferenceable(16) %0, ptr noundef nonnull align 8 dereferenceable(8) %3)
          to label %9 unwind label %25

9:                                                ; preds = %8
  call void @_ZN5QIconD1Ev(ptr noundef nonnull align 8 dereferenceable(8) %3) #21
  %10 = load ptr, ptr %4, align 8
  %11 = load atomic i32, ptr %10 monotonic, align 4
  switch i32 %11, label %_ZN9QtPrivate8RefCount5derefEv.exit.i [
    i32 0, label %_ZN9QtPrivate8RefCount5derefEv.exit.thread2.i
    i32 -1, label %_ZN7QStringD2Ev.exit
  ]

_ZN9QtPrivate8RefCount5derefEv.exit.i:            ; preds = %9
  %12 = atomicrmw sub ptr %10, i32 1 seq_cst, align 4
  %.not.i = icmp eq i32 %12, 1
  br i1 %.not.i, label %_ZN9QtPrivate8RefCount5derefEv.exit._ZN9QtPrivate8RefCount5derefEv.exit.thread2_crit_edge.i, label %_ZN7QStringD2Ev.exit

_ZN9QtPrivate8RefCount5derefEv.exit._ZN9QtPrivate8RefCount5derefEv.exit.thread2_crit_edge.i: ; preds = %_ZN9QtPrivate8RefCount5derefEv.exit.i
  %.pre.i = load ptr, ptr %4, align 8
  br label %_ZN9QtPrivate8RefCount5derefEv.exit.thread2.i

_ZN9QtPrivate8RefCount5derefEv.exit.thread2.i:    ; preds = %_ZN9QtPrivate8RefCount5derefEv.exit._ZN9QtPrivate8RefCount5derefEv.exit.thread2_crit_edge.i, %9
  %13 = phi ptr [ %.pre.i, %_ZN9QtPrivate8RefCount5derefEv.exit._ZN9QtPrivate8RefCount5derefEv.exit.thread2_crit_edge.i ], [ %10, %9 ]
  call void @_ZN10QArrayData10deallocateEPS_mm(ptr noundef %13, i64 noundef 2, i64 noundef 8) #21
  br label %_ZN7QStringD2Ev.exit

_ZN7QStringD2Ev.exit:                             ; preds = %9, %_ZN9QtPrivate8RefCount5derefEv.exit.i, %_ZN9QtPrivate8RefCount5derefEv.exit.thread2.i
  %14 = invoke noundef ptr @_ZN7QString16fromAscii_helperEPKci(ptr noundef nonnull @.str.40, i32 noundef 15)
          to label %15 unwind label %21

15:                                               ; preds = %_ZN7QStringD2Ev.exit
  store ptr %14, ptr %5, align 8
  invoke void @_ZN7QAction7setTextERK7QString(ptr noundef nonnull align 8 dereferenceable(16) %0, ptr noundef nonnull align 8 dereferenceable(8) %5)
          to label %16 unwind label %28

16:                                               ; preds = %15
  %17 = load ptr, ptr %5, align 8
  %18 = load atomic i32, ptr %17 monotonic, align 4
  switch i32 %18, label %_ZN9QtPrivate8RefCount5derefEv.exit.i10 [
    i32 0, label %_ZN9QtPrivate8RefCount5derefEv.exit.thread2.i9
    i32 -1, label %_ZN7QStringD2Ev.exit14
  ]

_ZN9QtPrivate8RefCount5derefEv.exit.i10:          ; preds = %16
  %19 = atomicrmw sub ptr %17, i32 1 seq_cst, align 4
  %.not.i11 = icmp eq i32 %19, 1
  br i1 %.not.i11, label %_ZN9QtPrivate8RefCount5derefEv.exit._ZN9QtPrivate8RefCount5derefEv.exit.thread2_crit_edge.i12, label %_ZN7QStringD2Ev.exit14

_ZN9QtPrivate8RefCount5derefEv.exit._ZN9QtPrivate8RefCount5derefEv.exit.thread2_crit_edge.i12: ; preds = %_ZN9QtPrivate8RefCount5derefEv.exit.i10
  %.pre.i13 = load ptr, ptr %5, align 8
  br label %_ZN9QtPrivate8RefCount5derefEv.exit.thread2.i9

_ZN9QtPrivate8RefCount5derefEv.exit.thread2.i9:   ; preds = %_ZN9QtPrivate8RefCount5derefEv.exit._ZN9QtPrivate8RefCount5derefEv.exit.thread2_crit_edge.i12, %16
  %20 = phi ptr [ %.pre.i13, %_ZN9QtPrivate8RefCount5derefEv.exit._ZN9QtPrivate8RefCount5derefEv.exit.thread2_crit_edge.i12 ], [ %17, %16 ]
  call void @_ZN10QArrayData10deallocateEPS_mm(ptr noundef %20, i64 noundef 2, i64 noundef 8) #21
  br label %_ZN7QStringD2Ev.exit14

_ZN7QStringD2Ev.exit14:                           ; preds = %16, %_ZN9QtPrivate8RefCount5derefEv.exit.i10, %_ZN9QtPrivate8RefCount5derefEv.exit.thread2.i9
  ret void

21:                                               ; preds = %_ZN7QStringD2Ev.exit, %2
  %22 = landingpad { ptr, i32 }
          cleanup
  br label %30

23:                                               ; preds = %7
  %24 = landingpad { ptr, i32 }
          cleanup
  br label %27

25:                                               ; preds = %8
  %26 = landingpad { ptr, i32 }
          cleanup
  call void @_ZN5QIconD1Ev(ptr noundef nonnull align 8 dereferenceable(8) %3) #21
  br label %27

27:                                               ; preds = %25, %23
  %.pn = phi { ptr, i32 } [ %26, %25 ], [ %24, %23 ]
  call void @_ZN7QStringD2Ev(ptr noundef nonnull align 8 dereferenceable(8) %4) #21
  br label %30

28:                                               ; preds = %15
  %29 = landingpad { ptr, i32 }
          cleanup
  call void @_ZN7QStringD2Ev(ptr noundef nonnull align 8 dereferenceable(8) %5) #21
  br label %30

30:                                               ; preds = %28, %27, %21
  %.pn6 = phi { ptr, i32 } [ %29, %28 ], [ %22, %21 ], [ %.pn, %27 ]
  call void @_ZN7QActionD2Ev(ptr noundef nonnull align 8 dereferenceable(16) %0) #21
  resume { ptr, i32 } %.pn6
}